; Function Attrs: mustprogress nounwind uwtable
define internal fastcc void @_ZNK7xgboost6common12_GLOBAL__N_117QuantileAllreduceINS0_9WQSummaryIffE5EntryEE6ValuesEij(ptr dead_on_unwind noalias nocapture writable writeonly align 8 %0, ptr nocapture noundef nonnull readonly align 8 dereferenceable(52) %1, i32 noundef %2, i32 noundef %3) unnamed_addr #5 align 2 personality ptr @__gxx_personality_v0 {
  %5 = getelementptr inbounds i8, ptr %1, i64 16
  %6 = add nsw i32 %2, 1
  %7 = sext i32 %6 to i64
  %8 = load i64, ptr %5, align 8
  %9 = icmp ugt i64 %8, %7
  br i1 %9, label %_ZNK7xgboost6common4SpanImLm18446744073709551615EEixEm.exit, label %10

10:                                               ; preds = %4
  tail call void @_ZSt9terminatev() #29
  unreachable

_ZNK7xgboost6common4SpanImLm18446744073709551615EEixEm.exit: ; preds = %4
  %11 = getelementptr inbounds i8, ptr %1, i64 24
  %12 = load ptr, ptr %11, align 8
  %13 = getelementptr inbounds i64, ptr %12, i64 %7
  %14 = load i64, ptr %13, align 8
  %15 = sext i32 %2 to i64
  %16 = icmp ugt i64 %8, %15
  br i1 %16, label %_ZNK7xgboost6common4SpanImLm18446744073709551615EEixEm.exit17, label %17

17:                                               ; preds = %_ZNK7xgboost6common4SpanImLm18446744073709551615EEixEm.exit
  tail call void @_ZSt9terminatev() #29
  unreachable

_ZNK7xgboost6common4SpanImLm18446744073709551615EEixEm.exit17: ; preds = %_ZNK7xgboost6common4SpanImLm18446744073709551615EEixEm.exit
  %18 = getelementptr inbounds i64, ptr %12, i64 %15
  %19 = load i64, ptr %18, align 8
  %20 = sub i64 %14, %19
  %21 = icmp eq i64 %20, -1
  %22 = load i64, ptr %1, align 8, !noalias !518
  br i1 %21, label %23, label %24

23:                                               ; preds = %_ZNK7xgboost6common4SpanImLm18446744073709551615EEixEm.exit17
  %.not8.i = icmp ult i64 %22, %19
  br i1 %.not8.i, label %25, label %26

24:                                               ; preds = %_ZNK7xgboost6common4SpanImLm18446744073709551615EEixEm.exit17
  %.not.i = icmp ugt i64 %14, %22
  br i1 %.not.i, label %25, label %28

25:                                               ; preds = %24, %23
  tail call void @_ZSt9terminatev() #29, !noalias !518
  unreachable

26:                                               ; preds = %23
  %27 = sub i64 %22, %19
  br label %28

28:                                               ; preds = %26, %24
  %29 = phi i64 [ %27, %26 ], [ %20, %24 ]
  %.in.i = getelementptr inbounds i8, ptr %1, i64 8
  %30 = load ptr, ptr %.in.i, align 8, !noalias !518
  %31 = getelementptr inbounds %"struct.xgboost::common::WQSummary<float, float>::Entry", ptr %30, i64 %19
  %32 = icmp ne ptr %30, null
  %33 = icmp eq i64 %29, 0
  %34 = or i1 %33, %32
  br i1 %34, label %_ZNK7xgboost6common4SpanINS0_9WQSummaryIffE5EntryELm18446744073709551615EE7subspanEmm.exit, label %35

35:                                               ; preds = %28
  tail call void @_ZSt9terminatev() #29, !noalias !518
  unreachable

_ZNK7xgboost6common4SpanINS0_9WQSummaryIffE5EntryELm18446744073709551615EE7subspanEmm.exit: ; preds = %28
  %36 = getelementptr inbounds i8, ptr %1, i64 48
  %37 = load i32, ptr %36, align 8
  %38 = add i32 %37, 1
  %39 = getelementptr inbounds i8, ptr %1, i64 32
  %40 = mul i32 %38, %2
  %41 = zext i32 %40 to i64
  %42 = zext i32 %38 to i64
  %43 = add nuw nsw i64 %41, %42
  %44 = load i64, ptr %39, align 8, !noalias !521
  %.not.i18 = icmp ugt i64 %43, %44
  br i1 %.not.i18, label %45, label %46

45:                                               ; preds = %_ZNK7xgboost6common4SpanINS0_9WQSummaryIffE5EntryELm18446744073709551615EE7subspanEmm.exit
  tail call void @_ZSt9terminatev() #29, !noalias !521
  unreachable

46:                                               ; preds = %_ZNK7xgboost6common4SpanINS0_9WQSummaryIffE5EntryELm18446744073709551615EE7subspanEmm.exit
  %.in.i19 = getelementptr inbounds i8, ptr %1, i64 40
  %47 = load ptr, ptr %.in.i19, align 8, !noalias !521
  %48 = getelementptr inbounds i64, ptr %47, i64 %41
  %49 = icmp ne ptr %47, null
  %50 = icmp eq i32 %38, 0
  %51 = or i1 %50, %49
  br i1 %51, label %_ZNK7xgboost6common4SpanImLm18446744073709551615EE7subspanEmm.exit, label %52

52:                                               ; preds = %46
  tail call void @_ZSt9terminatev() #29, !noalias !521
  unreachable

_ZNK7xgboost6common4SpanImLm18446744073709551615EE7subspanEmm.exit: ; preds = %46
  %53 = icmp ugt i32 %38, %3
  br i1 %53, label %_ZNK7xgboost6common4SpanImLm18446744073709551615EEixEm.exit21, label %54

54:                                               ; preds = %_ZNK7xgboost6common4SpanImLm18446744073709551615EE7subspanEmm.exit
  tail call void @_ZSt9terminatev() #29
  unreachable

_ZNK7xgboost6common4SpanImLm18446744073709551615EEixEm.exit21: ; preds = %_ZNK7xgboost6common4SpanImLm18446744073709551615EE7subspanEmm.exit
  %55 = zext i32 %3 to i64
  %56 = getelementptr inbounds i64, ptr %48, i64 %55
  %57 = load i64, ptr %56, align 8
  %58 = add nuw i32 %3, 1
  %59 = icmp ugt i32 %38, %58
  br i1 %59, label %_ZNK7xgboost6common4SpanImLm18446744073709551615EEixEm.exit22, label %60

60:                                               ; preds = %_ZNK7xgboost6common4SpanImLm18446744073709551615EEixEm.exit21
  tail call void @_ZSt9terminatev() #29
  unreachable

_ZNK7xgboost6common4SpanImLm18446744073709551615EEixEm.exit22: ; preds = %_ZNK7xgboost6common4SpanImLm18446744073709551615EEixEm.exit21
  %61 = zext i32 %58 to i64
  %62 = getelementptr inbounds i64, ptr %48, i64 %61
  %63 = load i64, ptr %62, align 8
  %64 = sub i64 %63, %57
  tail call void @llvm.experimental.noalias.scope.decl(metadata !524)
  %65 = icmp eq i64 %64, -1
  br i1 %65, label %66, label %67

66:                                               ; preds = %_ZNK7xgboost6common4SpanImLm18446744073709551615EEixEm.exit22
  %.not8.i25 = icmp ult i64 %29, %57
  br i1 %.not8.i25, label %68, label %69

67:                                               ; preds = %_ZNK7xgboost6common4SpanImLm18446744073709551615EEixEm.exit22
  %.not.i23 = icmp ugt i64 %63, %29
  br i1 %.not.i23, label %68, label %71

68:                                               ; preds = %67, %66
  tail call void @_ZSt9terminatev() #29, !noalias !524
  unreachable

69:                                               ; preds = %66
  %70 = sub i64 %29, %57
  br label %71

71:                                               ; preds = %69, %67
  %72 = phi i64 [ %70, %69 ], [ %64, %67 ]
  %73 = getelementptr inbounds %"struct.xgboost::common::WQSummary<float, float>::Entry", ptr %31, i64 %57
  store i64 %72, ptr %0, align 8, !alias.scope !524
  %74 = getelementptr inbounds i8, ptr %0, i64 8
  store ptr %73, ptr %74, align 8, !alias.scope !524
  %75 = icmp eq i64 %72, 0
  %76 = or i1 %32, %75
  br i1 %76, label %_ZNK7xgboost6common4SpanINS0_9WQSummaryIffE5EntryELm18446744073709551615EE7subspanEmm.exit26, label %77

77:                                               ; preds = %71
  tail call void @_ZSt9terminatev() #29, !noalias !524
  unreachable

_ZNK7xgboost6common4SpanINS0_9WQSummaryIffE5EntryELm18446744073709551615EE7subspanEmm.exit26: ; preds = %71
  ret void
}